target datalayout = "e-m:e-p270:32:32-p271:32:32-p272:64:64-i64:64-i128:128-f80:128-n8:16:32:64-S128"
target triple = "x86_64-pc-linux-gnu"

%struct.uat_key_record_s = type { ptr, ptr, ptr, ptr }

@.str.113 = private unnamed_addr constant [24 x i8] c"ZDD IEEE can't be blank\00", align 1
@.str.114 = private unnamed_addr constant [24 x i8] c"ZVD IEEE can't be blank\00", align 1
@.str.115 = private unnamed_addr constant [19 x i8] c"Key can't be blank\00", align 1
@.str.116 = private unnamed_addr constant [70 x i8] c"Expecting %d hexadecimal bytes or a %d character double-quoted string\00", align 1

; Function Attrs: null_pointer_is_valid sspstrong uwtable
define internal zeroext i1 @uat_key_record_update_cb(ptr noundef %0, ptr noundef %1) #0 {
  %3 = alloca i1, align 1
  %4 = alloca ptr, align 8
  %5 = alloca ptr, align 8
  %6 = alloca ptr, align 8
  %7 = alloca [8 x i8], align 1
  %8 = alloca [8 x i8], align 1
  %9 = alloca [16 x i8], align 16
  %10 = alloca i32, align 4
  store ptr %0, ptr %4, align 8
  store ptr %1, ptr %5, align 8
  call void @llvm.lifetime.start.p0(i64 8, ptr %6) #13
  %11 = load ptr, ptr %4, align 8
  store ptr %11, ptr %6, align 8
  call void @llvm.lifetime.start.p0(i64 8, ptr %7) #13
  call void @llvm.lifetime.start.p0(i64 8, ptr %8) #13
  call void @llvm.lifetime.start.p0(i64 16, ptr %9) #13
  %12 = load ptr, ptr %5, align 8
  store ptr null, ptr %12, align 8
  %13 = load ptr, ptr %6, align 8
  %14 = getelementptr inbounds nuw %struct.uat_key_record_s, ptr %13, i32 0, i32 0
  %15 = load ptr, ptr %14, align 8
  %16 = icmp eq ptr %15, null
  br i1 %16, label %17, label %20

17:                                               ; preds = %2
  %18 = call noalias ptr @g_strdup(ptr noundef @.str.113)
  %19 = load ptr, ptr %5, align 8
  store ptr %18, ptr %19, align 8
  store i1 false, ptr %3, align 1
  store i32 1, ptr %10, align 4
  br label %112

20:                                               ; preds = %2
  %21 = load ptr, ptr %6, align 8
  %22 = getelementptr inbounds nuw %struct.uat_key_record_s, ptr %21, i32 0, i32 1
  %23 = load ptr, ptr %22, align 8
  %24 = icmp eq ptr %23, null
  br i1 %24, label %25, label %28

25:                                               ; preds = %20
  %26 = call noalias ptr @g_strdup(ptr noundef @.str.114)
  %27 = load ptr, ptr %5, align 8
  store ptr %26, ptr %27, align 8
  store i1 false, ptr %3, align 1
  store i32 1, ptr %10, align 4
  br label %112

28:                                               ; preds = %20
  %29 = load ptr, ptr %6, align 8
  %30 = getelementptr inbounds nuw %struct.uat_key_record_s, ptr %29, i32 0, i32 2
  %31 = load ptr, ptr %30, align 8
  %32 = icmp eq ptr %31, null
  br i1 %32, label %33, label %36

33:                                               ; preds = %28
  %34 = call noalias ptr @g_strdup(ptr noundef @.str.115)
  %35 = load ptr, ptr %5, align 8
  store ptr %34, ptr %35, align 8
  store i1 false, ptr %3, align 1
  store i32 1, ptr %10, align 4
  br label %112

36:                                               ; preds = %28
  %37 = load ptr, ptr %6, align 8
  %38 = getelementptr inbounds nuw %struct.uat_key_record_s, ptr %37, i32 0, i32 0
  %39 = load ptr, ptr %38, align 8
  %40 = call ptr @g_strchug(ptr noundef %39)
  %41 = call ptr @g_strchomp(ptr noundef %40)
  %42 = load ptr, ptr %6, align 8
  %43 = getelementptr inbounds nuw %struct.uat_key_record_s, ptr %42, i32 0, i32 1
  %44 = load ptr, ptr %43, align 8
  %45 = call ptr @g_strchug(ptr noundef %44)
  %46 = call ptr @g_strchomp(ptr noundef %45)
  %47 = load ptr, ptr %6, align 8
  %48 = getelementptr inbounds nuw %struct.uat_key_record_s, ptr %47, i32 0, i32 2
  %49 = load ptr, ptr %48, align 8
  %50 = call ptr @g_strchug(ptr noundef %49)
  %51 = call ptr @g_strchomp(ptr noundef %50)
  %52 = load ptr, ptr %6, align 8
  %53 = getelementptr inbounds nuw %struct.uat_key_record_s, ptr %52, i32 0, i32 0
  %54 = load ptr, ptr %53, align 8
  %55 = getelementptr i8, ptr %54, i64 0
  %56 = load i8, ptr %55, align 1
  %57 = sext i8 %56 to i32
  %58 = icmp eq i32 %57, 0
  br i1 %58, label %59, label %62

59:                                               ; preds = %36
  %60 = call noalias ptr @g_strdup(ptr noundef @.str.113)
  %61 = load ptr, ptr %5, align 8
  store ptr %60, ptr %61, align 8
  store i1 false, ptr %3, align 1
  store i32 1, ptr %10, align 4
  br label %112

62:                                               ; preds = %36
  %63 = load ptr, ptr %6, align 8
  %64 = getelementptr inbounds nuw %struct.uat_key_record_s, ptr %63, i32 0, i32 1
  %65 = load ptr, ptr %64, align 8
  %66 = getelementptr i8, ptr %65, i64 0
  %67 = load i8, ptr %66, align 1
  %68 = sext i8 %67 to i32
  %69 = icmp eq i32 %68, 0
  br i1 %69, label %70, label %73

70:                                               ; preds = %62
  %71 = call noalias ptr @g_strdup(ptr noundef @.str.114)
  %72 = load ptr, ptr %5, align 8
  store ptr %71, ptr %72, align 8
  store i1 false, ptr %3, align 1
  store i32 1, ptr %10, align 4
  br label %112

73:                                               ; preds = %62
  %74 = load ptr, ptr %6, align 8
  %75 = getelementptr inbounds nuw %struct.uat_key_record_s, ptr %74, i32 0, i32 2
  %76 = load ptr, ptr %75, align 8
  %77 = getelementptr i8, ptr %76, i64 0
  %78 = load i8, ptr %77, align 1
  %79 = sext i8 %78 to i32
  %80 = icmp eq i32 %79, 0
  br i1 %80, label %81, label %84

81:                                               ; preds = %73
  %82 = call noalias ptr @g_strdup(ptr noundef @.str.115)
  %83 = load ptr, ptr %5, align 8
  store ptr %82, ptr %83, align 8
  store i1 false, ptr %3, align 1
  store i32 1, ptr %10, align 4
  br label %112

84:                                               ; preds = %73
  %85 = load ptr, ptr %6, align 8
  %86 = getelementptr inbounds nuw %struct.uat_key_record_s, ptr %85, i32 0, i32 0
  %87 = load ptr, ptr %86, align 8
  %88 = getelementptr inbounds [8 x i8], ptr %7, i64 0, i64 0
  %89 = call zeroext i1 @zbd_parse_uat_hexline(ptr noundef %87, ptr noundef %88, i32 noundef 8)
  br i1 %89, label %93, label %90

90:                                               ; preds = %84
  %91 = call noalias ptr (ptr, ...) @g_strdup_printf(ptr noundef @.str.116, i32 noundef 8, i32 noundef 8)
  %92 = load ptr, ptr %5, align 8
  store ptr %91, ptr %92, align 8
  store i1 false, ptr %3, align 1
  store i32 1, ptr %10, align 4
  br label %112

93:                                               ; preds = %84
  %94 = load ptr, ptr %6, align 8
  %95 = getelementptr inbounds nuw %struct.uat_key_record_s, ptr %94, i32 0, i32 1
  %96 = load ptr, ptr %95, align 8
  %97 = getelementptr inbounds [8 x i8], ptr %8, i64 0, i64 0
  %98 = call zeroext i1 @zbd_parse_uat_hexline(ptr noundef %96, ptr noundef %97, i32 noundef 8)
  br i1 %98, label %102, label %99

99:                                               ; preds = %93
  %100 = call noalias ptr (ptr, ...) @g_strdup_printf(ptr noundef @.str.116, i32 noundef 8, i32 noundef 8)
  %101 = load ptr, ptr %5, align 8
  store ptr %100, ptr %101, align 8
  store i1 false, ptr %3, align 1
  store i32 1, ptr %10, align 4
  br label %112

102:                                              ; preds = %93
  %103 = load ptr, ptr %6, align 8
  %104 = getelementptr inbounds nuw %struct.uat_key_record_s, ptr %103, i32 0, i32 2
  %105 = load ptr, ptr %104, align 8
  %106 = getelementptr inbounds [16 x i8], ptr %9, i64 0, i64 0
  %107 = call zeroext i1 @zbd_parse_uat_hexline(ptr noundef %105, ptr noundef %106, i32 noundef 16)
  br i1 %107, label %111, label %108

108:                                              ; preds = %102
  %109 = call noalias ptr (ptr, ...) @g_strdup_printf(ptr noundef @.str.116, i32 noundef 16, i32 noundef 16)
  %110 = load ptr, ptr %5, align 8
  store ptr %109, ptr %110, align 8
  store i1 false, ptr %3, align 1
  store i32 1, ptr %10, align 4
  br label %112

111:                                              ; preds = %102
  store i1 true, ptr %3, align 1
  store i32 1, ptr %10, align 4
  br label %112

112:                                              ; preds = %111, %108, %99, %90, %81, %70, %59, %33, %25, %17
  call void @llvm.lifetime.end.p0(i64 16, ptr %9) #13
  call void @llvm.lifetime.end.p0(i64 8, ptr %8) #13
  call void @llvm.lifetime.end.p0(i64 8, ptr %7) #13
  call void @llvm.lifetime.end.p0(i64 8, ptr %6) #13
  %113 = load i1, ptr %3, align 1
  ret i1 %113
}