; Function Attrs: null_pointer_is_valid sspstrong uwtable
define internal noundef zeroext i1 @uat_key_record_update_cb(ptr noundef readonly captures(none) %0, ptr noundef writeonly captures(none) initializes((0, 8)) %1) #0 {
  %3 = alloca [8 x i8], align 1
  %4 = alloca [8 x i8], align 1
  %5 = alloca [16 x i8], align 16
  call void @llvm.lifetime.start.p0(i64 8, ptr nonnull %3) #13
  call void @llvm.lifetime.start.p0(i64 8, ptr nonnull %4) #13
  call void @llvm.lifetime.start.p0(i64 16, ptr nonnull %5) #13
  store ptr null, ptr %1, align 8
  %6 = load ptr, ptr %0, align 8
  %7 = icmp eq ptr %6, null
  br i1 %7, label %8, label %10

8:                                                ; preds = %2
  %9 = tail call noalias ptr @g_strdup(ptr noundef nonnull @.str.113)
  br label %.sink.split

10:                                               ; preds = %2
  %11 = getelementptr inbounds nuw i8, ptr %0, i64 8
  %12 = load ptr, ptr %11, align 8
  %13 = icmp eq ptr %12, null
  br i1 %13, label %14, label %16

14:                                               ; preds = %10
  %15 = tail call noalias ptr @g_strdup(ptr noundef nonnull @.str.114)
  br label %.sink.split

16:                                               ; preds = %10
  %17 = getelementptr inbounds nuw i8, ptr %0, i64 16
  %18 = load ptr, ptr %17, align 8
  %19 = icmp eq ptr %18, null
  br i1 %19, label %20, label %22

20:                                               ; preds = %16
  %21 = tail call noalias ptr @g_strdup(ptr noundef nonnull @.str.115)
  br label %.sink.split

22:                                               ; preds = %16
  %23 = tail call ptr @g_strchug(ptr noundef nonnull %6)
  %24 = tail call ptr @g_strchomp(ptr noundef %23)
  %25 = load ptr, ptr %11, align 8
  %26 = tail call ptr @g_strchug(ptr noundef %25)
  %27 = tail call ptr @g_strchomp(ptr noundef %26)
  %28 = load ptr, ptr %17, align 8
  %29 = tail call ptr @g_strchug(ptr noundef %28)
  %30 = tail call ptr @g_strchomp(ptr noundef %29)
  %31 = load ptr, ptr %0, align 8
  %32 = load i8, ptr %31, align 1
  %33 = icmp eq i8 %32, 0
  br i1 %33, label %34, label %36

34:                                               ; preds = %22
  %35 = tail call noalias ptr @g_strdup(ptr noundef nonnull @.str.113)
  br label %.sink.split

36:                                               ; preds = %22
  %37 = load ptr, ptr %11, align 8
  %38 = load i8, ptr %37, align 1
  %39 = icmp eq i8 %38, 0
  br i1 %39, label %40, label %42

40:                                               ; preds = %36
  %41 = tail call noalias ptr @g_strdup(ptr noundef nonnull @.str.114)
  br label %.sink.split

42:                                               ; preds = %36
  %43 = load ptr, ptr %17, align 8
  %44 = load i8, ptr %43, align 1
  %45 = icmp eq i8 %44, 0
  br i1 %45, label %46, label %48

46:                                               ; preds = %42
  %47 = tail call noalias ptr @g_strdup(ptr noundef nonnull @.str.115)
  br label %.sink.split

48:                                               ; preds = %42
  %49 = call fastcc zeroext i1 @zbd_parse_uat_hexline(ptr noundef %31, ptr noundef nonnull %3, i32 noundef 8)
  br i1 %49, label %52, label %50

50:                                               ; preds = %48
  %51 = call noalias ptr (ptr, ...) @g_strdup_printf(ptr noundef nonnull @.str.116, i32 noundef 8, i32 noundef 8)
  br label %.sink.split

52:                                               ; preds = %48
  %53 = call fastcc zeroext i1 @zbd_parse_uat_hexline(ptr noundef %37, ptr noundef nonnull %4, i32 noundef 8)
  br i1 %53, label %56, label %54

54:                                               ; preds = %52
  %55 = call noalias ptr (ptr, ...) @g_strdup_printf(ptr noundef nonnull @.str.116, i32 noundef 8, i32 noundef 8)
  br label %.sink.split

56:                                               ; preds = %52
  %57 = call fastcc zeroext i1 @zbd_parse_uat_hexline(ptr noundef %43, ptr noundef nonnull %5, i32 noundef 16)
  br i1 %57, label %60, label %58

58:                                               ; preds = %56
  %59 = call noalias ptr (ptr, ...) @g_strdup_printf(ptr noundef nonnull @.str.116, i32 noundef 16, i32 noundef 16)
  br label %.sink.split

.sink.split:                                      ; preds = %8, %14, %20, %34, %40, %46, %50, %54, %58
  %.sink = phi ptr [ %59, %58 ], [ %55, %54 ], [ %51, %50 ], [ %47, %46 ], [ %41, %40 ], [ %35, %34 ], [ %21, %20 ], [ %15, %14 ], [ %9, %8 ]
  store ptr %.sink, ptr %1, align 8
  br label %60

60:                                               ; preds = %.sink.split, %56
  %.0 = phi i1 [ true, %56 ], [ false, %.sink.split ]
  call void @llvm.lifetime.end.p0(i64 16, ptr nonnull %5) #13
  call void @llvm.lifetime.end.p0(i64 8, ptr nonnull %4) #13
  call void @llvm.lifetime.end.p0(i64 8, ptr nonnull %3) #13
  ret i1 %.0
}